; Function Attrs: mustprogress uwtable
define internal noundef i64 @"_ZNSt17_Function_handlerIFmRN7rocksdb9lru_cache13LRUCacheShardEEZNS1_8LRUCache15TEST_GetLRUSizeEvE3$_0E9_M_invokeERKSt9_Any_dataS3_"(ptr nocapture nonnull readnone align 8 %__functor, ptr noundef nonnull align 64 dereferenceable(256) %__args) #0 align 2 personality ptr @__gxx_personality_v0 {
entry:
  %mutex_.i.i.i.i = getelementptr inbounds i8, ptr %__args, i64 208
  tail call void @_ZN7rocksdb4port5Mutex4LockEv(ptr noundef nonnull align 8 dereferenceable(40) %mutex_.i.i.i.i)
  %lru_.i.i.i.i = getelementptr inbounds i8, ptr %__args, i64 72
  %next.i.i.i.i = getelementptr inbounds i8, ptr %__args, i64 96
  %lru_handle.03.i.i.i.i = load ptr, ptr %next.i.i.i.i, align 32
  %cmp.not4.i.i.i.i = icmp eq ptr %lru_handle.03.i.i.i.i, %lru_.i.i.i.i
  br i1 %cmp.not4.i.i.i.i, label %while.end.i.i.i.i, label %while.body.i.i.i.i

while.body.i.i.i.i:                               ; preds = %entry, %while.body.i.i.i.i
  %lru_handle.06.i.i.i.i = phi ptr [ %lru_handle.0.i.i.i.i, %while.body.i.i.i.i ], [ %lru_handle.03.i.i.i.i, %entry ]
  %lru_size.05.i.i.i.i = phi i64 [ %inc.i.i.i.i, %while.body.i.i.i.i ], [ 0, %entry ]
  %inc.i.i.i.i = add i64 %lru_size.05.i.i.i.i, 1
  %next3.i.i.i.i = getelementptr inbounds i8, ptr %lru_handle.06.i.i.i.i, i64 24
  %lru_handle.0.i.i.i.i = load ptr, ptr %next3.i.i.i.i, align 8
  %cmp.not.i.i.i.i = icmp eq ptr %lru_handle.0.i.i.i.i, %lru_.i.i.i.i
  br i1 %cmp.not.i.i.i.i, label %while.end.i.i.i.i, label %while.body.i.i.i.i, !llvm.loop !18

while.end.i.i.i.i:                                ; preds = %while.body.i.i.i.i, %entry
  %lru_size.0.lcssa.i.i.i.i = phi i64 [ 0, %entry ], [ %inc.i.i.i.i, %while.body.i.i.i.i ]
  invoke void @_ZN7rocksdb4port5Mutex6UnlockEv(ptr noundef nonnull align 8 dereferenceable(40) %mutex_.i.i.i.i)
          to label %"_ZSt10__invoke_rImRZN7rocksdb9lru_cache8LRUCache15TEST_GetLRUSizeEvE3$_0JRNS1_13LRUCacheShardEEENSt9enable_ifIX16is_invocable_r_vIT_T0_DpT1_EES8_E4typeEOS9_DpOSA_.exit" unwind label %terminate.lpad.i.i.i.i.i

terminate.lpad.i.i.i.i.i:                         ; preds = %while.end.i.i.i.i
  %0 = landingpad { ptr, i32 }
          catch ptr null
  %1 = extractvalue { ptr, i32 } %0, 0
  tail call void @__clang_call_terminate(ptr %1) #27
  unreachable

"_ZSt10__invoke_rImRZN7rocksdb9lru_cache8LRUCache15TEST_GetLRUSizeEvE3$_0JRNS1_13LRUCacheShardEEENSt9enable_ifIX16is_invocable_r_vIT_T0_DpT1_EES8_E4typeEOS9_DpOSA_.exit": ; preds = %while.end.i.i.i.i
  ret i64 %lru_size.0.lcssa.i.i.i.i
}